target datalayout = "e-m:e-p270:32:32-p271:32:32-p272:64:64-i64:64-i128:128-f80:128-n8:16:32:64-S128"
target triple = "x86_64-pc-linux-gnu"

@hf_mp4_full_box_ver = internal global i32 0, align 4
@hf_mp4_full_box_flags = internal global i32 0, align 4
@hf_mp4_stco_entry_cnt = internal global i32 0, align 4
@hf_mp4_stco_chunk_offset = internal global i32 0, align 4
@ett_mp4_full_box_flags = internal global i32 0, align 4
@.str.177 = private unnamed_addr constant [26 x i8] c"Entry %u: Chunk offset %u\00", align 1

; Function Attrs: null_pointer_is_valid sspstrong uwtable
define internal i32 @dissect_mp4_full_box(ptr noundef %0, i32 noundef %1, ptr noundef %2, ptr noundef %3, ptr noundef %4, ptr noundef %5) #0 {
  %7 = alloca ptr, align 8
  %8 = alloca i32, align 4
  %9 = alloca ptr, align 8
  %10 = alloca ptr, align 8
  %11 = alloca ptr, align 8
  %12 = alloca ptr, align 8
  store ptr %0, ptr %7, align 8
  store i32 %1, ptr %8, align 4
  store ptr %2, ptr %9, align 8
  store ptr %3, ptr %10, align 8
  store ptr %4, ptr %11, align 8
  store ptr %5, ptr %12, align 8
  %13 = load ptr, ptr %11, align 8
  %14 = icmp ne ptr %13, null
  br i1 %14, label %15, label %20

15:                                               ; preds = %6
  %16 = load ptr, ptr %7, align 8
  %17 = load i32, ptr %8, align 4
  %18 = call zeroext i8 @tvb_get_uint8(ptr noundef %16, i32 noundef %17)
  %19 = load ptr, ptr %11, align 8
  store i8 %18, ptr %19, align 1
  br label %20

20:                                               ; preds = %15, %6
  %21 = load ptr, ptr %9, align 8
  %22 = load i32, ptr @hf_mp4_full_box_ver, align 4
  %23 = load ptr, ptr %7, align 8
  %24 = load i32, ptr %8, align 4
  %25 = call ptr @proto_tree_add_item(ptr noundef %21, i32 noundef %22, ptr noundef %23, i32 noundef %24, i32 noundef 1, i32 noundef 0)
  %26 = load i32, ptr %8, align 4
  %27 = add i32 %26, 1
  store i32 %27, ptr %8, align 4
  %28 = load ptr, ptr %12, align 8
  %29 = icmp ne ptr %28, null
  br i1 %29, label %30, label %35

30:                                               ; preds = %20
  %31 = load ptr, ptr %7, align 8
  %32 = load i32, ptr %8, align 4
  %33 = call i32 @tvb_get_ntoh24(ptr noundef %31, i32 noundef %32)
  %34 = load ptr, ptr %12, align 8
  store i32 %33, ptr %34, align 4
  br label %35

35:                                               ; preds = %30, %20
  %36 = load ptr, ptr %10, align 8
  %37 = icmp ne ptr %36, null
  br i1 %37, label %38, label %46

38:                                               ; preds = %35
  %39 = load ptr, ptr %9, align 8
  %40 = load ptr, ptr %7, align 8
  %41 = load i32, ptr %8, align 4
  %42 = load i32, ptr @hf_mp4_full_box_flags, align 4
  %43 = load i32, ptr @ett_mp4_full_box_flags, align 4
  %44 = load ptr, ptr %10, align 8
  %45 = call ptr @proto_tree_add_bitmask(ptr noundef %39, ptr noundef %40, i32 noundef %41, i32 noundef %42, i32 noundef %43, ptr noundef %44, i32 noundef 0)
  br label %52

46:                                               ; preds = %35
  %47 = load ptr, ptr %9, align 8
  %48 = load i32, ptr @hf_mp4_full_box_flags, align 4
  %49 = load ptr, ptr %7, align 8
  %50 = load i32, ptr %8, align 4
  %51 = call ptr @proto_tree_add_item(ptr noundef %47, i32 noundef %48, ptr noundef %49, i32 noundef %50, i32 noundef 3, i32 noundef 0)
  br label %52

52:                                               ; preds = %46, %38
  ret i32 4
}

; Function Attrs: null_pointer_is_valid sspstrong uwtable
define internal i32 @dissect_mp4_stco_body(ptr noundef %0, i32 noundef %1, i32 noundef %2, ptr noundef %3, i32 noundef %4, ptr noundef %5) #0 {
  %7 = alloca ptr, align 8
  %8 = alloca i32, align 4
  %9 = alloca i32, align 4
  %10 = alloca ptr, align 8
  %11 = alloca i32, align 4
  %12 = alloca ptr, align 8
  %13 = alloca i32, align 4
  %14 = alloca i32, align 4
  %15 = alloca i32, align 4
  store ptr %0, ptr %7, align 8
  store i32 %1, ptr %8, align 4
  store i32 %2, ptr %9, align 4
  store ptr %3, ptr %10, align 8
  store i32 %4, ptr %11, align 4
  store ptr %5, ptr %12, align 8
  call void @llvm.lifetime.start.p0(i64 4, ptr %13) #7
  call void @llvm.lifetime.start.p0(i64 4, ptr %14) #7
  %16 = load ptr, ptr %7, align 8
  %17 = load i32, ptr %8, align 4
  %18 = load ptr, ptr %12, align 8
  %19 = call i32 @dissect_mp4_full_box(ptr noundef %16, i32 noundef %17, ptr noundef %18, ptr noundef null, ptr noundef null, ptr noundef null)
  %20 = load i32, ptr %8, align 4
  %21 = add i32 %20, %19
  store i32 %21, ptr %8, align 4
  %22 = load ptr, ptr %12, align 8
  %23 = load i32, ptr @hf_mp4_stco_entry_cnt, align 4
  %24 = load ptr, ptr %7, align 8
  %25 = load i32, ptr %8, align 4
  %26 = call ptr @proto_tree_add_item_ret_uint(ptr noundef %22, i32 noundef %23, ptr noundef %24, i32 noundef %25, i32 noundef 4, i32 noundef 0, ptr noundef %13)
  %27 = load i32, ptr %8, align 4
  %28 = add i32 %27, 4
  store i32 %28, ptr %8, align 4
  store i32 1, ptr %14, align 4
  br label %29

29:                                               ; preds = %47, %6
  %30 = load i32, ptr %14, align 4
  %31 = load i32, ptr %13, align 4
  %32 = icmp ule i32 %30, %31
  br i1 %32, label %33, label %50

33:                                               ; preds = %29
  call void @llvm.lifetime.start.p0(i64 4, ptr %15) #7
  %34 = load ptr, ptr %7, align 8
  %35 = load i32, ptr %8, align 4
  %36 = call i32 @tvb_get_ntohl(ptr noundef %34, i32 noundef %35)
  store i32 %36, ptr %15, align 4
  %37 = load ptr, ptr %12, align 8
  %38 = load i32, ptr @hf_mp4_stco_chunk_offset, align 4
  %39 = load ptr, ptr %7, align 8
  %40 = load i32, ptr %8, align 4
  %41 = load i32, ptr %15, align 4
  %42 = load i32, ptr %14, align 4
  %43 = load i32, ptr %15, align 4
  %44 = call ptr (ptr, i32, ptr, i32, i32, i32, ptr, ...) @proto_tree_add_uint_format(ptr noundef %37, i32 noundef %38, ptr noundef %39, i32 noundef %40, i32 noundef 4, i32 noundef %41, ptr noundef @.str.177, i32 noundef %42, i32 noundef %43)
  %45 = load i32, ptr %8, align 4
  %46 = add i32 %45, 4
  store i32 %46, ptr %8, align 4
  call void @llvm.lifetime.end.p0(i64 4, ptr %15) #7
  br label %47

47:                                               ; preds = %33
  %48 = load i32, ptr %14, align 4
  %49 = add i32 %48, 1
  store i32 %49, ptr %14, align 4
  br label %29, !llvm.loop !15

50:                                               ; preds = %29
  %51 = load i32, ptr %9, align 4
  call void @llvm.lifetime.end.p0(i64 4, ptr %14) #7
  call void @llvm.lifetime.end.p0(i64 4, ptr %13) #7
  ret i32 %51
}