; Function Attrs: null_pointer_is_valid sspstrong uwtable
define internal fastcc void @dissect_mp4_stco_body(ptr noundef %0, i32 noundef %1, ptr noundef %2) unnamed_addr #0 {
  %4 = alloca i32, align 4
  call void @llvm.lifetime.start.p0(i64 4, ptr nonnull %4) #5
  %5 = load i32, ptr @hf_mp4_full_box_ver, align 4
  %6 = tail call ptr @proto_tree_add_item(ptr noundef %2, i32 noundef %5, ptr noundef %0, i32 noundef %1, i32 noundef 1, i32 noundef 0)
  %7 = add i32 %1, 1
  %8 = load i32, ptr @hf_mp4_full_box_flags, align 4
  %9 = tail call ptr @proto_tree_add_item(ptr noundef %2, i32 noundef %8, ptr noundef %0, i32 noundef %7, i32 noundef 3, i32 noundef 0)
  %10 = add i32 %1, 4
  %11 = load i32, ptr @hf_mp4_stco_entry_cnt, align 4
  %12 = call ptr @proto_tree_add_item_ret_uint(ptr noundef %2, i32 noundef %11, ptr noundef %0, i32 noundef %10, i32 noundef 4, i32 noundef 0, ptr noundef nonnull %4)
  %13 = load i32, ptr %4, align 4
  %.not1 = icmp eq i32 %13, 0
  br i1 %.not1, label %._crit_edge, label %.lr.ph.preheader

.lr.ph.preheader:                                 ; preds = %3
  %14 = add i32 %1, 8
  br label %.lr.ph

.lr.ph:                                           ; preds = %.lr.ph.preheader, %.lr.ph
  %.03 = phi i32 [ %18, %.lr.ph ], [ %14, %.lr.ph.preheader ]
  %.0192 = phi i32 [ %19, %.lr.ph ], [ 1, %.lr.ph.preheader ]
  %15 = call i32 @tvb_get_ntohl(ptr noundef %0, i32 noundef %.03)
  %16 = load i32, ptr @hf_mp4_stco_chunk_offset, align 4
  %17 = call ptr (ptr, i32, ptr, i32, i32, i32, ptr, ...) @proto_tree_add_uint_format(ptr noundef %2, i32 noundef %16, ptr noundef %0, i32 noundef %.03, i32 noundef 4, i32 noundef %15, ptr noundef nonnull @.str.177, i32 noundef %.0192, i32 noundef %15)
  %18 = add i32 %.03, 4
  %19 = add i32 %.0192, 1
  %20 = load i32, ptr %4, align 4
  %.not = icmp ugt i32 %19, %20
  br i1 %.not, label %._crit_edge, label %.lr.ph, !llvm.loop !15

._crit_edge:                                      ; preds = %.lr.ph, %3
  call void @llvm.lifetime.end.p0(i64 4, ptr nonnull %4) #5
  ret void
}